target datalayout = "e-m:e-p270:32:32-p271:32:32-p272:64:64-i64:64-i128:128-f80:128-n8:16:32:64-S128"
target triple = "x86_64-pc-linux-gnu"

%struct.AVRational = type { i32, i32 }
%struct.AVFormatContext = type { ptr, ptr, ptr, ptr, ptr, i32, i32, ptr, i32, ptr, i32, ptr, ptr, i64, i64, i64, i32, i32, i32, i64, i64, ptr, i32, i32, ptr, i32, i32, i32, i32, ptr, i64, i32, i32, %struct.AVIOInterruptCB, i32, i32, i32, i32, i64, i32, i32, i32, i32, i32, i32, i32, i32, i32, i32, i32, i32, i64, i32, i32, i32, i32, i32, ptr, ptr, ptr, ptr, i32, ptr, ptr, ptr, ptr, i32, ptr, ptr, i64, ptr, ptr, ptr, i64 }
%struct.AVIOInterruptCB = type { ptr, ptr }
%struct.AVPacket = type { ptr, i64, i64, ptr, i32, i32, i32, ptr, i32, i64, i64, ptr, ptr, %struct.AVRational }

; Function Attrs: nounwind uwtable
define internal i32 @read_packet(ptr noundef %0, ptr noundef %1) #0 {
  %3 = alloca i32, align 4
  %4 = alloca ptr, align 8
  %5 = alloca ptr, align 8
  %6 = alloca ptr, align 8
  %7 = alloca i32, align 4
  %8 = alloca i32, align 4
  %9 = alloca i32, align 4
  %10 = alloca i32, align 4
  store ptr %0, ptr %4, align 8, !tbaa !14
  store ptr %1, ptr %5, align 8, !tbaa !66
  call void @llvm.lifetime.start.p0(i64 8, ptr %6) #8
  %11 = load ptr, ptr %4, align 8, !tbaa !14
  %12 = getelementptr inbounds nuw %struct.AVFormatContext, ptr %11, i32 0, i32 4
  %13 = load ptr, ptr %12, align 8, !tbaa !16
  store ptr %13, ptr %6, align 8, !tbaa !31
  call void @llvm.lifetime.start.p0(i64 4, ptr %7) #8
  call void @llvm.lifetime.start.p0(i64 4, ptr %8) #8
  call void @llvm.lifetime.start.p0(i64 4, ptr %9) #8
  %14 = load ptr, ptr %6, align 8, !tbaa !31
  %15 = call i32 @avio_feof(ptr noundef %14)
  %16 = icmp ne i32 %15, 0
  br i1 %16, label %17, label %18

17:                                               ; preds = %2
  store i32 -541478725, ptr %3, align 4
  store i32 1, ptr %10, align 4
  br label %56

18:                                               ; preds = %2
  %19 = load ptr, ptr %6, align 8, !tbaa !31
  %20 = call i64 @avio_skip(ptr noundef %19, i64 noundef 4)
  %21 = load ptr, ptr %6, align 8, !tbaa !31
  %22 = call i32 @avio_rb32(ptr noundef %21)
  store i32 %22, ptr %7, align 4, !tbaa !32
  %23 = load ptr, ptr %6, align 8, !tbaa !31
  %24 = call i64 @avio_skip(ptr noundef %23, i64 noundef 4)
  %25 = load ptr, ptr %6, align 8, !tbaa !31
  %26 = call i32 @avio_rb32(ptr noundef %25)
  store i32 %26, ptr %8, align 4, !tbaa !32
  %27 = load i32, ptr %7, align 4, !tbaa !32
  %28 = load i32, ptr %8, align 4, !tbaa !32
  %29 = add i32 %28, 16
  %30 = icmp ult i32 %27, %29
  br i1 %30, label %31, label %32

31:                                               ; preds = %18
  store i32 -5, ptr %3, align 4
  store i32 1, ptr %10, align 4
  br label %56

32:                                               ; preds = %18
  %33 = load ptr, ptr %6, align 8, !tbaa !31
  %34 = load ptr, ptr %5, align 8, !tbaa !66
  %35 = load i32, ptr %8, align 4, !tbaa !32
  %36 = call i32 @av_get_packet(ptr noundef %33, ptr noundef %34, i32 noundef %35)
  store i32 %36, ptr %9, align 4, !tbaa !32
  %37 = load i32, ptr %9, align 4, !tbaa !32
  %38 = icmp slt i32 %37, 0
  br i1 %38, label %39, label %41

39:                                               ; preds = %32
  %40 = load i32, ptr %9, align 4, !tbaa !32
  store i32 %40, ptr %3, align 4
  store i32 1, ptr %10, align 4
  br label %56

41:                                               ; preds = %32
  %42 = load ptr, ptr %5, align 8, !tbaa !66
  %43 = getelementptr inbounds nuw %struct.AVPacket, ptr %42, i32 0, i32 10
  %44 = load i64, ptr %43, align 8, !tbaa !68
  %45 = sub nsw i64 %44, 16
  store i64 %45, ptr %43, align 8, !tbaa !68
  %46 = load ptr, ptr %5, align 8, !tbaa !66
  %47 = getelementptr inbounds nuw %struct.AVPacket, ptr %46, i32 0, i32 9
  store i64 1, ptr %47, align 8, !tbaa !69
  %48 = load ptr, ptr %6, align 8, !tbaa !31
  %49 = load i32, ptr %7, align 4, !tbaa !32
  %50 = load i32, ptr %9, align 4, !tbaa !32
  %51 = add nsw i32 %50, 16
  %52 = sub i32 %49, %51
  %53 = zext i32 %52 to i64
  %54 = call i64 @avio_skip(ptr noundef %48, i64 noundef %53)
  %55 = load i32, ptr %9, align 4, !tbaa !32
  store i32 %55, ptr %3, align 4
  store i32 1, ptr %10, align 4
  br label %56

56:                                               ; preds = %41, %39, %31, %17
  call void @llvm.lifetime.end.p0(i64 4, ptr %9) #8
  call void @llvm.lifetime.end.p0(i64 4, ptr %8) #8
  call void @llvm.lifetime.end.p0(i64 4, ptr %7) #8
  call void @llvm.lifetime.end.p0(i64 8, ptr %6) #8
  %57 = load i32, ptr %3, align 4
  ret i32 %57
}