; Function Attrs: nounwind uwtable
define internal i32 @read_packet(ptr noundef readonly captures(none) %0, ptr noundef %1) #1 {
  %3 = getelementptr inbounds nuw i8, ptr %0, i64 32
  %4 = load ptr, ptr %3, align 8, !tbaa !12
  %5 = tail call i32 @avio_feof(ptr noundef %4) #4
  %.not = icmp eq i32 %5, 0
  br i1 %.not, label %6, label %24

6:                                                ; preds = %2
  %7 = tail call i64 @avio_skip(ptr noundef %4, i64 noundef 4) #4
  %8 = tail call i32 @avio_rb32(ptr noundef %4) #4
  %9 = tail call i64 @avio_skip(ptr noundef %4, i64 noundef 4) #4
  %10 = tail call i32 @avio_rb32(ptr noundef %4) #4
  %11 = add i32 %10, 16
  %12 = icmp ult i32 %8, %11
  br i1 %12, label %24, label %13

13:                                               ; preds = %6
  %14 = tail call i32 @av_get_packet(ptr noundef %4, ptr noundef %1, i32 noundef %10) #4
  %15 = icmp slt i32 %14, 0
  br i1 %15, label %24, label %16

16:                                               ; preds = %13
  %17 = getelementptr inbounds nuw i8, ptr %1, i64 72
  %18 = load i64, ptr %17, align 8, !tbaa !56
  %19 = add nsw i64 %18, -16
  store i64 %19, ptr %17, align 8, !tbaa !56
  %20 = getelementptr inbounds nuw i8, ptr %1, i64 64
  store i64 1, ptr %20, align 8, !tbaa !57
  %.neg21 = add i32 %8, -16
  %21 = sub i32 %.neg21, %14
  %22 = zext i32 %21 to i64
  %23 = tail call i64 @avio_skip(ptr noundef %4, i64 noundef %22) #4
  br label %24

24:                                               ; preds = %13, %6, %2, %16
  %.0 = phi i32 [ %14, %16 ], [ -541478725, %2 ], [ -5, %6 ], [ %14, %13 ]
  ret i32 %.0
}